; Function Attrs: mustprogress uwtable
define noundef nonnull ptr @_ZN32pxrInternal_v0_24__pxrReserved__16Pcp_MakeIdentityEv() local_unnamed_addr #0 personality ptr @__gxx_personality_v0 {
  %1 = tail call noalias noundef nonnull dereferenceable(56) ptr @_Znwm(i64 noundef 56) #21
  %2 = getelementptr inbounds nuw i8, ptr %1, i64 32
  store i32 0, ptr %2, align 8
  %3 = getelementptr inbounds nuw i8, ptr %1, i64 36
  store i8 0, ptr %3, align 4
  %4 = getelementptr inbounds nuw i8, ptr %1, i64 40
  invoke void @_ZN32pxrInternal_v0_24__pxrReserved__14SdfLayerOffsetC1Edd(ptr noundef nonnull align 8 dereferenceable(16) %4, double noundef 0.000000e+00, double noundef 1.000000e+00)
          to label %_ZN32pxrInternal_v0_24__pxrReserved__14PcpMapFunctionC2Ev.exit unwind label %.body

.body:                                            ; preds = %0
  %5 = landingpad { ptr, i32 }
          cleanup
  tail call void @_ZN32pxrInternal_v0_24__pxrReserved__14PcpMapFunction5_DataD2Ev(ptr noundef nonnull align 8 dereferenceable(40) %1) #22
  tail call void @_ZdlPvm(ptr noundef nonnull %1, i64 noundef 56) #26
  resume { ptr, i32 } %5

_ZN32pxrInternal_v0_24__pxrReserved__14PcpMapFunctionC2Ev.exit: ; preds = %0
  store i8 1, ptr %3, align 4
  ret ptr %1
}